; Function Attrs: mustprogress uwtable
define hidden void @_ZN4lean16lift_loose_bvarsERKNS_4exprEjj(ptr dead_on_unwind noalias writable sret(%"class.lean::expr") align 8 %0, ptr noundef nonnull align 8 dereferenceable(8) %1, i32 noundef %2, i32 noundef %3) local_unnamed_addr #0 personality ptr @__gxx_personality_v0 {
  %5 = alloca %"class.std::function.1", align 8
  %6 = icmp eq i32 %3, 0
  br i1 %6, label %19, label %7

7:                                                ; preds = %4
  %8 = load ptr, ptr %1, align 8, !tbaa !10
  %9 = ptrtoint ptr %8 to i64
  %10 = and i64 %9, 1
  %.not.i.i.i = icmp eq i64 %10, 0
  br i1 %.not.i.i.i, label %11, label %_ZN4lean20get_loose_bvar_rangeERKNS_4exprE.exit

11:                                               ; preds = %7
  %.val.i.i.i.i = load i32, ptr %8, align 4, !tbaa !21
  %12 = icmp sgt i32 %.val.i.i.i.i, 0
  br i1 %12, label %13, label %15, !prof !24

13:                                               ; preds = %11
  %14 = add nuw nsw i32 %.val.i.i.i.i, 1
  store i32 %14, ptr %8, align 4, !tbaa !21
  br label %_ZN4lean20get_loose_bvar_rangeERKNS_4exprE.exit

15:                                               ; preds = %11
  %.not.i.i.i.i = icmp eq i32 %.val.i.i.i.i, 0
  br i1 %.not.i.i.i.i, label %_ZN4lean20get_loose_bvar_rangeERKNS_4exprE.exit, label %16

16:                                               ; preds = %15
  tail call void @lean_inc_ref_cold(ptr noundef nonnull %8)
  %.pre.i.i = load ptr, ptr %1, align 8, !tbaa !10
  br label %_ZN4lean20get_loose_bvar_rangeERKNS_4exprE.exit

_ZN4lean20get_loose_bvar_rangeERKNS_4exprE.exit:  ; preds = %7, %13, %15, %16
  %17 = phi ptr [ %8, %7 ], [ %8, %13 ], [ %8, %15 ], [ %.pre.i.i, %16 ]
  %18 = tail call noundef i32 @lean_expr_loose_bvar_range(ptr noundef %17)
  %.not = icmp ult i32 %2, %18
  br i1 %.not, label %29, label %19

19:                                               ; preds = %_ZN4lean20get_loose_bvar_rangeERKNS_4exprE.exit, %4
  %20 = load ptr, ptr %1, align 8, !tbaa !10
  store ptr %20, ptr %0, align 8, !tbaa !10
  %21 = ptrtoint ptr %20 to i64
  %22 = and i64 %21, 1
  %.not.i.i.i9 = icmp eq i64 %22, 0
  br i1 %.not.i.i.i9, label %23, label %_ZN4lean4exprC2ERKS0_.exit

23:                                               ; preds = %19
  %.val.i.i.i.i10 = load i32, ptr %20, align 4, !tbaa !21
  %24 = icmp sgt i32 %.val.i.i.i.i10, 0
  br i1 %24, label %25, label %27, !prof !24

25:                                               ; preds = %23
  %26 = add nuw nsw i32 %.val.i.i.i.i10, 1
  store i32 %26, ptr %20, align 4, !tbaa !21
  br label %_ZN4lean4exprC2ERKS0_.exit

27:                                               ; preds = %23
  %.not.i.i.i.i11 = icmp eq i32 %.val.i.i.i.i10, 0
  br i1 %.not.i.i.i.i11, label %_ZN4lean4exprC2ERKS0_.exit, label %28

28:                                               ; preds = %27
  tail call void @lean_inc_ref_cold(ptr noundef nonnull %20)
  br label %_ZN4lean4exprC2ERKS0_.exit

29:                                               ; preds = %_ZN4lean20get_loose_bvar_rangeERKNS_4exprE.exit
  call void @llvm.lifetime.start.p0(i64 32, ptr nonnull %5) #16
  %.sroa.5.0.insert.ext = zext i32 %3 to i64
  %.sroa.5.0.insert.shift = shl nuw i64 %.sroa.5.0.insert.ext, 32
  %.sroa.0.0.insert.ext = zext i32 %2 to i64
  %.sroa.0.0.insert.insert = or disjoint i64 %.sroa.5.0.insert.shift, %.sroa.0.0.insert.ext
  %30 = getelementptr inbounds nuw i8, ptr %5, i64 16
  %31 = getelementptr inbounds nuw i8, ptr %5, i64 24
  %32 = getelementptr inbounds nuw i8, ptr %5, i64 8
  store i64 0, ptr %32, align 8
  store i64 %.sroa.0.0.insert.insert, ptr %5, align 8
  store ptr @"_ZNSt17_Function_handlerIFN4lean8optionalINS0_4exprEEERKS2_jEZNS0_16lift_loose_bvarsES5_jjE3$_0E9_M_invokeERKSt9_Any_dataS5_Oj", ptr %31, align 8, !tbaa !107
  store ptr @"_ZNSt17_Function_handlerIFN4lean8optionalINS0_4exprEEERKS2_jEZNS0_16lift_loose_bvarsES5_jjE3$_0E10_M_managerERSt9_Any_dataRKS9_St18_Manager_operation", ptr %30, align 8, !tbaa !92
  invoke void @_ZN4lean7replaceERKNS_4exprERKSt8functionIFNS_8optionalIS0_EES2_jEEb(ptr dead_on_unwind writable sret(%"class.lean::expr") align 8 %0, ptr noundef nonnull align 8 dereferenceable(8) %1, ptr noundef nonnull align 8 dereferenceable(32) %5, i1 noundef zeroext true)
          to label %33 unwind label %40

33:                                               ; preds = %29
  %34 = load ptr, ptr %30, align 8, !tbaa !92
  %.not.i = icmp eq ptr %34, null
  br i1 %.not.i, label %_ZNSt14_Function_baseD2Ev.exit, label %35

35:                                               ; preds = %33
  %36 = invoke noundef zeroext i1 %34(ptr noundef nonnull align 8 dereferenceable(32) %5, ptr noundef nonnull align 8 dereferenceable(32) %5, i32 noundef 3)
          to label %_ZNSt14_Function_baseD2Ev.exit unwind label %37

37:                                               ; preds = %35
  %38 = landingpad { ptr, i32 }
          catch ptr null
  %39 = extractvalue { ptr, i32 } %38, 0
  call void @__clang_call_terminate(ptr %39) #19
  unreachable

_ZNSt14_Function_baseD2Ev.exit:                   ; preds = %33, %35
  call void @llvm.lifetime.end.p0(i64 32, ptr nonnull %5) #16
  br label %_ZN4lean4exprC2ERKS0_.exit

40:                                               ; preds = %29
  %41 = landingpad { ptr, i32 }
          cleanup
  %42 = load ptr, ptr %30, align 8, !tbaa !92
  %.not.i12 = icmp eq ptr %42, null
  br i1 %.not.i12, label %_ZNSt14_Function_baseD2Ev.exit13, label %43

43:                                               ; preds = %40
  %44 = invoke noundef zeroext i1 %42(ptr noundef nonnull align 8 dereferenceable(32) %5, ptr noundef nonnull align 8 dereferenceable(32) %5, i32 noundef 3)
          to label %_ZNSt14_Function_baseD2Ev.exit13 unwind label %45

45:                                               ; preds = %43
  %46 = landingpad { ptr, i32 }
          catch ptr null
  %47 = extractvalue { ptr, i32 } %46, 0
  call void @__clang_call_terminate(ptr %47) #19
  unreachable

_ZNSt14_Function_baseD2Ev.exit13:                 ; preds = %40, %43
  call void @llvm.lifetime.end.p0(i64 32, ptr nonnull %5) #16
  resume { ptr, i32 } %41

_ZN4lean4exprC2ERKS0_.exit:                       ; preds = %28, %27, %25, %19, %_ZNSt14_Function_baseD2Ev.exit
  ret void
}